; Function Attrs: mustprogress uwtable
define void @_Z27serializeDeviceInformationsRKSt6vectorISt10unique_ptrI17DeviceInformationSt14default_deleteIS1_EESaIS4_EEPN3gmx11ISerializerE(ptr noundef nonnull readonly align 8 captures(none) dereferenceable(24) %0, ptr noundef %1) local_unnamed_addr #4 {
  %3 = alloca i32, align 4
  call void @llvm.lifetime.start.p0(i64 4, ptr nonnull %3) #27
  %4 = getelementptr inbounds nuw i8, ptr %0, i64 8
  %5 = load ptr, ptr %4, align 8, !tbaa !20
  %6 = load ptr, ptr %0, align 8, !tbaa !24
  %7 = ptrtoint ptr %5 to i64
  %8 = ptrtoint ptr %6 to i64
  %9 = sub i64 %7, %8
  %10 = lshr exact i64 %9, 3
  %11 = trunc i64 %10 to i32
  store i32 %11, ptr %3, align 4, !tbaa !47
  %12 = load ptr, ptr %1, align 8, !tbaa !50
  %13 = getelementptr inbounds nuw i8, ptr %12, i64 56
  %14 = load ptr, ptr %13, align 8
  call void %14(ptr noundef nonnull align 8 dereferenceable(8) %1, ptr noundef nonnull %3)
  %15 = load ptr, ptr %0, align 8, !tbaa !86
  %16 = load ptr, ptr %4, align 8, !tbaa !86
  %.not10 = icmp eq ptr %15, %16
  br i1 %.not10, label %._crit_edge, label %.lr.ph

._crit_edge:                                      ; preds = %.lr.ph, %2
  call void @llvm.lifetime.end.p0(i64 4, ptr nonnull %3) #27
  ret void

.lr.ph:                                           ; preds = %2, %.lr.ph
  %.sroa.07.011 = phi ptr [ %21, %.lr.ph ], [ %15, %2 ]
  %17 = load ptr, ptr %.sroa.07.011, align 8, !tbaa !30
  %18 = load ptr, ptr %1, align 8, !tbaa !50
  %19 = getelementptr inbounds nuw i8, ptr %18, i64 128
  %20 = load ptr, ptr %19, align 8
  call void %20(ptr noundef nonnull align 8 dereferenceable(8) %1, ptr noundef %17, i64 noundef 88)
  %21 = getelementptr inbounds nuw i8, ptr %.sroa.07.011, i64 8
  %.not = icmp eq ptr %21, %16
  br i1 %.not, label %._crit_edge, label %.lr.ph
}